; Function Attrs: mustprogress nofree norecurse nosync nounwind willreturn memory(argmem: read) uwtable
define internal i32 @kern_pair_8_compare(ptr nocapture noundef readonly %0, ptr nocapture noundef readonly %1) #3 {
  %3 = load i32, ptr %0, align 4, !tbaa !32
  %4 = load i8, ptr %1, align 1, !tbaa !15
  %5 = zext i8 %4 to i32
  %.not = icmp eq i32 %3, %5
  br i1 %.not, label %8, label %6

6:                                                ; preds = %2
  %7 = sub i32 %3, %5
  br label %15

8:                                                ; preds = %2
  %9 = getelementptr inbounds nuw i8, ptr %0, i64 4
  %10 = load i32, ptr %9, align 4, !tbaa !34
  %11 = getelementptr inbounds i8, ptr %1, i64 1
  %12 = load i8, ptr %11, align 1, !tbaa !15
  %13 = zext i8 %12 to i32
  %14 = sub i32 %10, %13
  br label %15

15:                                               ; preds = %8, %6
  %.0 = phi i32 [ %7, %6 ], [ %14, %8 ]
  ret i32 %.0
}